target datalayout = "e-m:e-p270:32:32-p271:32:32-p272:64:64-i64:64-i128:128-f80:128-n8:16:32:64-S128"
target triple = "x86_64-pc-linux-gnu"

%struct.Scl_Item_t_ = type { i32, i32, %struct.Scl_Pair_t_, %struct.Scl_Pair_t_, %struct.Scl_Pair_t_, i32, i32 }
%struct.Scl_Pair_t_ = type { i32, i32 }
%struct.Scl_Tree_t_ = type { ptr, ptr, i64, i32, i32, i32, ptr, ptr, i64, ptr }

; Function Attrs: nounwind uwtable
define internal ptr @Scl_LibertyNewItem(ptr noundef %0, i32 noundef %1) #0 {
  %3 = alloca ptr, align 8
  %4 = alloca i32, align 4
  store ptr %0, ptr %3, align 8
  store i32 %1, ptr %4, align 4
  %5 = load ptr, ptr %3, align 8
  %6 = getelementptr inbounds %struct.Scl_Tree_t_, ptr %5, i32 0, i32 3
  %7 = load i32, ptr %6, align 8
  %8 = load ptr, ptr %3, align 8
  %9 = getelementptr inbounds %struct.Scl_Tree_t_, ptr %8, i32 0, i32 6
  %10 = load ptr, ptr %9, align 8
  %11 = load ptr, ptr %3, align 8
  %12 = getelementptr inbounds %struct.Scl_Tree_t_, ptr %11, i32 0, i32 4
  %13 = load i32, ptr %12, align 4
  %14 = sext i32 %13 to i64
  %15 = getelementptr inbounds %struct.Scl_Item_t_, ptr %10, i64 %14
  %16 = getelementptr inbounds %struct.Scl_Item_t_, ptr %15, i32 0, i32 1
  store i32 %7, ptr %16, align 4
  %17 = load i32, ptr %4, align 4
  %18 = load ptr, ptr %3, align 8
  %19 = getelementptr inbounds %struct.Scl_Tree_t_, ptr %18, i32 0, i32 6
  %20 = load ptr, ptr %19, align 8
  %21 = load ptr, ptr %3, align 8
  %22 = getelementptr inbounds %struct.Scl_Tree_t_, ptr %21, i32 0, i32 4
  %23 = load i32, ptr %22, align 4
  %24 = sext i32 %23 to i64
  %25 = getelementptr inbounds %struct.Scl_Item_t_, ptr %20, i64 %24
  %26 = getelementptr inbounds %struct.Scl_Item_t_, ptr %25, i32 0, i32 0
  store i32 %17, ptr %26, align 4
  %27 = load ptr, ptr %3, align 8
  %28 = getelementptr inbounds %struct.Scl_Tree_t_, ptr %27, i32 0, i32 6
  %29 = load ptr, ptr %28, align 8
  %30 = load ptr, ptr %3, align 8
  %31 = getelementptr inbounds %struct.Scl_Tree_t_, ptr %30, i32 0, i32 4
  %32 = load i32, ptr %31, align 4
  %33 = sext i32 %32 to i64
  %34 = getelementptr inbounds %struct.Scl_Item_t_, ptr %29, i64 %33
  %35 = getelementptr inbounds %struct.Scl_Item_t_, ptr %34, i32 0, i32 6
  store i32 -1, ptr %35, align 4
  %36 = load ptr, ptr %3, align 8
  %37 = getelementptr inbounds %struct.Scl_Tree_t_, ptr %36, i32 0, i32 6
  %38 = load ptr, ptr %37, align 8
  %39 = load ptr, ptr %3, align 8
  %40 = getelementptr inbounds %struct.Scl_Tree_t_, ptr %39, i32 0, i32 4
  %41 = load i32, ptr %40, align 4
  %42 = sext i32 %41 to i64
  %43 = getelementptr inbounds %struct.Scl_Item_t_, ptr %38, i64 %42
  %44 = getelementptr inbounds %struct.Scl_Item_t_, ptr %43, i32 0, i32 5
  store i32 -1, ptr %44, align 4
  %45 = load ptr, ptr %3, align 8
  %46 = getelementptr inbounds %struct.Scl_Tree_t_, ptr %45, i32 0, i32 6
  %47 = load ptr, ptr %46, align 8
  %48 = load ptr, ptr %3, align 8
  %49 = getelementptr inbounds %struct.Scl_Tree_t_, ptr %48, i32 0, i32 4
  %50 = load i32, ptr %49, align 4
  %51 = add nsw i32 %50, 1
  store i32 %51, ptr %49, align 4
  %52 = sext i32 %50 to i64
  %53 = getelementptr inbounds %struct.Scl_Item_t_, ptr %47, i64 %52
  ret ptr %53
}