; Function Attrs: mustprogress nofree norecurse nosync nounwind willreturn memory(write, argmem: readwrite, inaccessiblemem: none) uwtable
define internal fastcc ptr @Scl_LibertyNewItem(ptr noundef captures(none) %0, i32 noundef range(i32 1, 4) %1) unnamed_addr #8 {
  %3 = getelementptr inbounds nuw i8, ptr %0, i64 24
  %4 = load i32, ptr %3, align 8
  %5 = getelementptr inbounds nuw i8, ptr %0, i64 40
  %6 = load ptr, ptr %5, align 8
  %7 = getelementptr inbounds nuw i8, ptr %0, i64 28
  %8 = load i32, ptr %7, align 4
  %9 = sext i32 %8 to i64
  %10 = getelementptr inbounds %struct.Scl_Item_t_, ptr %6, i64 %9, i32 1
  store i32 %4, ptr %10, align 4
  %11 = load ptr, ptr %5, align 8
  %12 = load i32, ptr %7, align 4
  %13 = sext i32 %12 to i64
  %14 = getelementptr inbounds %struct.Scl_Item_t_, ptr %11, i64 %13
  store i32 %1, ptr %14, align 4
  %15 = load ptr, ptr %5, align 8
  %16 = load i32, ptr %7, align 4
  %17 = sext i32 %16 to i64
  %18 = getelementptr inbounds %struct.Scl_Item_t_, ptr %15, i64 %17, i32 6
  store i32 -1, ptr %18, align 4
  %19 = load ptr, ptr %5, align 8
  %20 = load i32, ptr %7, align 4
  %21 = sext i32 %20 to i64
  %22 = getelementptr inbounds %struct.Scl_Item_t_, ptr %19, i64 %21, i32 5
  store i32 -1, ptr %22, align 4
  %23 = load ptr, ptr %5, align 8
  %24 = load i32, ptr %7, align 4
  %25 = add nsw i32 %24, 1
  store i32 %25, ptr %7, align 4
  %26 = sext i32 %24 to i64
  %27 = getelementptr inbounds %struct.Scl_Item_t_, ptr %23, i64 %26
  ret ptr %27
}